target datalayout = "e-m:e-p270:32:32-p271:32:32-p272:64:64-i64:64-i128:128-f80:128-n8:16:32:64-S128"
target triple = "x86_64-unknown-linux-gnu"

%struct.TCGOp = type { i32, i32, %union.anon, [2 x i32], [0 x i64] }
%union.anon = type { %struct.QTailQLink }
%struct.QTailQLink = type { ptr, ptr }

@tcg_ctx = external thread_local global ptr, align 8

; Function Attrs: nounwind sspstrong uwtable
define internal ptr @tcgv_i32_temp(ptr noundef %v) #0 {
entry:
  %v.addr = alloca ptr, align 8
  store ptr %v, ptr %v.addr, align 8
  %0 = call align 8 ptr @llvm.threadlocal.address.p0(ptr align 8 @tcg_ctx)
  %1 = load ptr, ptr %0, align 8
  %2 = load ptr, ptr %v.addr, align 8
  %3 = ptrtoint ptr %2 to i64
  %add.ptr = getelementptr i8, ptr %1, i64 %3
  ret ptr %add.ptr
}

; Function Attrs: nounwind sspstrong uwtable
define internal ptr @tcgv_ptr_temp(ptr noundef %v) #0 {
entry:
  %v.addr = alloca ptr, align 8
  store ptr %v, ptr %v.addr, align 8
  %0 = load ptr, ptr %v.addr, align 8
  %call = call ptr @tcgv_i32_temp(ptr noundef %0)
  ret ptr %call
}

; Function Attrs: nounwind sspstrong uwtable
define internal i64 @temp_arg(ptr noundef %ts) #0 {
entry:
  %ts.addr = alloca ptr, align 8
  store ptr %ts, ptr %ts.addr, align 8
  %0 = load ptr, ptr %ts.addr, align 8
  %1 = ptrtoint ptr %0 to i64
  ret i64 %1
}

; Function Attrs: nounwind sspstrong uwtable
define internal ptr @tcgv_vec_temp(ptr noundef %v) #0 {
entry:
  %v.addr = alloca ptr, align 8
  store ptr %v, ptr %v.addr, align 8
  %0 = load ptr, ptr %v.addr, align 8
  %call = call ptr @tcgv_i32_temp(ptr noundef %0)
  ret ptr %call
}

; Function Attrs: nounwind sspstrong uwtable
define dso_local void @vec_gen_3(i32 noundef %opc, i32 noundef %type, i32 noundef %vece, i64 noundef %r, i64 noundef %a, i64 noundef %b) #0 {
entry:
  %opc.addr = alloca i32, align 4
  %type.addr = alloca i32, align 4
  %vece.addr = alloca i32, align 4
  %r.addr = alloca i64, align 8
  %a.addr = alloca i64, align 8
  %b.addr = alloca i64, align 8
  %op = alloca ptr, align 8
  store i32 %opc, ptr %opc.addr, align 4
  store i32 %type, ptr %type.addr, align 4
  store i32 %vece, ptr %vece.addr, align 4
  store i64 %r, ptr %r.addr, align 8
  store i64 %a, ptr %a.addr, align 8
  store i64 %b, ptr %b.addr, align 8
  %0 = load i32, ptr %opc.addr, align 4
  %call = call ptr @tcg_emit_op(i32 noundef %0, i32 noundef 3)
  store ptr %call, ptr %op, align 8
  %1 = load i32, ptr %type.addr, align 4
  %sub = sub i32 %1, 3
  %2 = load ptr, ptr %op, align 8
  %bf.load = load i32, ptr %2, align 8
  %bf.value = and i32 %sub, 255
  %bf.shl = shl i32 %bf.value, 16
  %bf.clear = and i32 %bf.load, -16711681
  %bf.set = or i32 %bf.clear, %bf.shl
  store i32 %bf.set, ptr %2, align 8
  %3 = load i32, ptr %vece.addr, align 4
  %4 = load ptr, ptr %op, align 8
  %bf.load1 = load i32, ptr %4, align 8
  %bf.value2 = and i32 %3, 255
  %bf.shl3 = shl i32 %bf.value2, 24
  %bf.clear4 = and i32 %bf.load1, 16777215
  %bf.set5 = or i32 %bf.clear4, %bf.shl3
  store i32 %bf.set5, ptr %4, align 8
  %5 = load i64, ptr %r.addr, align 8
  %6 = load ptr, ptr %op, align 8
  %args = getelementptr inbounds %struct.TCGOp, ptr %6, i32 0, i32 4
  %arrayidx = getelementptr [0 x i64], ptr %args, i64 0, i64 0
  store i64 %5, ptr %arrayidx, align 8
  %7 = load i64, ptr %a.addr, align 8
  %8 = load ptr, ptr %op, align 8
  %args6 = getelementptr inbounds %struct.TCGOp, ptr %8, i32 0, i32 4
  %arrayidx7 = getelementptr [0 x i64], ptr %args6, i64 0, i64 1
  store i64 %7, ptr %arrayidx7, align 8
  %9 = load i64, ptr %b.addr, align 8
  %10 = load ptr, ptr %op, align 8
  %args8 = getelementptr inbounds %struct.TCGOp, ptr %10, i32 0, i32 4
  %arrayidx9 = getelementptr [0 x i64], ptr %args8, i64 0, i64 2
  store i64 %9, ptr %arrayidx9, align 8
  ret void
}

; Function Attrs: nounwind sspstrong uwtable
define internal ptr @arg_temp(i64 noundef %a) #0 {
entry:
  %a.addr = alloca i64, align 8
  store i64 %a, ptr %a.addr, align 8
  %0 = load i64, ptr %a.addr, align 8
  %1 = inttoptr i64 %0 to ptr
  ret ptr %1
}

; Function Attrs: nounwind sspstrong uwtable
define internal i64 @tcgv_ptr_arg(ptr noundef %v) #0 {
entry:
  %v.addr = alloca ptr, align 8
  store ptr %v, ptr %v.addr, align 8
  %0 = load ptr, ptr %v.addr, align 8
  %call = call ptr @tcgv_ptr_temp(ptr noundef %0)
  %call1 = call i64 @temp_arg(ptr noundef %call)
  ret i64 %call1
}

; Function Attrs: nounwind sspstrong uwtable
define internal i64 @tcgv_vec_arg(ptr noundef %v) #0 {
entry:
  %v.addr = alloca ptr, align 8
  store ptr %v, ptr %v.addr, align 8
  %0 = load ptr, ptr %v.addr, align 8
  %call = call ptr @tcgv_vec_temp(ptr noundef %0)
  %call1 = call i64 @temp_arg(ptr noundef %call)
  ret i64 %call1
}

; Function Attrs: nounwind sspstrong uwtable
define internal void @vec_gen_ldst(i32 noundef %opc, ptr noundef %r, ptr noundef %b, i64 noundef %o) #0 {
entry:
  %opc.addr = alloca i32, align 4
  %r.addr = alloca ptr, align 8
  %b.addr = alloca ptr, align 8
  %o.addr = alloca i64, align 8
  %ri = alloca i64, align 8
  %bi = alloca i64, align 8
  %rt = alloca ptr, align 8
  %type = alloca i32, align 4
  store i32 %opc, ptr %opc.addr, align 4
  store ptr %r, ptr %r.addr, align 8
  store ptr %b, ptr %b.addr, align 8
  store i64 %o, ptr %o.addr, align 8
  %0 = load ptr, ptr %r.addr, align 8
  %call = call i64 @tcgv_vec_arg(ptr noundef %0)
  store i64 %call, ptr %ri, align 8
  %1 = load ptr, ptr %b.addr, align 8
  %call1 = call i64 @tcgv_ptr_arg(ptr noundef %1)
  store i64 %call1, ptr %bi, align 8
  %2 = load i64, ptr %ri, align 8
  %call2 = call ptr @arg_temp(i64 noundef %2)
  store ptr %call2, ptr %rt, align 8
  %3 = load ptr, ptr %rt, align 8
  %bf.load = load i64, ptr %3, align 8
  %bf.lshr = lshr i64 %bf.load, 16
  %bf.clear = and i64 %bf.lshr, 255
  %bf.cast = trunc i64 %bf.clear to i32
  store i32 %bf.cast, ptr %type, align 4
  %4 = load i32, ptr %opc.addr, align 4
  %5 = load i32, ptr %type, align 4
  %6 = load i64, ptr %ri, align 8
  %7 = load i64, ptr %bi, align 8
  %8 = load i64, ptr %o.addr, align 8
  call void @vec_gen_3(i32 noundef %4, i32 noundef %5, i32 noundef 0, i64 noundef %6, i64 noundef %7, i64 noundef %8)
  ret void
}

; Function Attrs: nounwind sspstrong uwtable
define dso_local void @tcg_gen_ld_vec(ptr noundef %r, ptr noundef %b, i64 noundef %o) #0 {
entry:
  %r.addr = alloca ptr, align 8
  %b.addr = alloca ptr, align 8
  %o.addr = alloca i64, align 8
  store ptr %r, ptr %r.addr, align 8
  store ptr %b, ptr %b.addr, align 8
  store i64 %o, ptr %o.addr, align 8
  %0 = load ptr, ptr %r.addr, align 8
  %1 = load ptr, ptr %b.addr, align 8
  %2 = load i64, ptr %o.addr, align 8
  call void @vec_gen_ldst(i32 noundef 152, ptr noundef %0, ptr noundef %1, i64 noundef %2)
  ret void
}