; Function Attrs: nounwind sspstrong uwtable
define dso_local void @tcg_gen_ld_vec(ptr noundef %r, ptr noundef %b, i64 noundef %o) local_unnamed_addr #0 {
entry:
  %0 = tail call align 8 ptr @llvm.threadlocal.address.p0(ptr align 8 @tcg_ctx)
  %1 = load ptr, ptr %0, align 8
  %2 = ptrtoint ptr %r to i64
  %add.ptr.i.i.i.i = getelementptr i8, ptr %1, i64 %2
  %3 = ptrtoint ptr %add.ptr.i.i.i.i to i64
  %4 = ptrtoint ptr %b to i64
  %add.ptr.i.i.i2.i = getelementptr i8, ptr %1, i64 %4
  %5 = ptrtoint ptr %add.ptr.i.i.i2.i to i64
  %bf.load.i = load i64, ptr %add.ptr.i.i.i.i, align 8
  %6 = trunc i64 %bf.load.i to i32
  %call.i.i = tail call ptr @tcg_emit_op(i32 noundef 152, i32 noundef 3) #5
  %bf.load.i.i = load i32, ptr %call.i.i, align 8
  %bf.value.i.i = add i32 %6, 16580608
  %bf.clear.i.i = and i32 %bf.load.i.i, 65535
  %bf.value.masked.i.i = and i32 %bf.value.i.i, 16711680
  %bf.clear4.i.i = or disjoint i32 %bf.value.masked.i.i, %bf.clear.i.i
  store i32 %bf.clear4.i.i, ptr %call.i.i, align 8
  %args.i.i = getelementptr inbounds nuw i8, ptr %call.i.i, i64 32
  store i64 %3, ptr %args.i.i, align 8
  %arrayidx7.i.i = getelementptr i8, ptr %call.i.i, i64 40
  store i64 %5, ptr %arrayidx7.i.i, align 8
  %arrayidx9.i.i = getelementptr i8, ptr %call.i.i, i64 48
  store i64 %o, ptr %arrayidx9.i.i, align 8
  ret void
}